; Function Attrs: nounwind uwtable
define hidden void @X11_HideScreenKeyboard(ptr noundef readonly captures(none) %0, ptr noundef readnone captures(none) %1) local_unnamed_addr #0 {
  %3 = getelementptr inbounds nuw i8, ptr %0, i64 1656
  %4 = load ptr, ptr %3, align 8
  %5 = getelementptr inbounds nuw i8, ptr %4, i64 1760
  %6 = load i8, ptr %5, align 8, !range !15, !noundef !16
  %7 = trunc nuw i8 %6 to i1
  br i1 %7, label %8, label %11

8:                                                ; preds = %2
  %9 = tail call zeroext i1 @SDL_OpenURL_REAL(ptr noundef nonnull @.str.13) #9
  %10 = getelementptr inbounds nuw i8, ptr %4, i64 1761
  store i8 0, ptr %10, align 1
  br label %11

11:                                               ; preds = %8, %2
  ret void
}